; Function Attrs: mustprogress uwtable
define void @_ZN7Imf_3_211StdOSStreamC2Ev(ptr noundef nonnull align 8 dereferenceable(416) %this) unnamed_addr #3 align 2 personality ptr @__gxx_personality_v0 {
entry:
  tail call void @_ZN7Imf_3_27OStreamC2EPKc(ptr noundef nonnull align 8 dereferenceable(40) %this, ptr noundef nonnull @.str.1)
  store ptr getelementptr inbounds ({ [7 x ptr] }, ptr @_ZTVN7Imf_3_211StdOSStreamE, i64 0, i32 0, i64 2), ptr %this, align 8
  %_os = getelementptr inbounds i8, ptr %this, i64 40
  invoke void @_ZNSt7__cxx1119basic_ostringstreamIcSt11char_traitsIcESaIcEEC1Ev(ptr noundef nonnull align 8 dereferenceable(112) %_os)
          to label %invoke.cont unwind label %lpad

invoke.cont:                                      ; preds = %entry
  ret void

lpad:                                             ; preds = %entry
  %0 = landingpad { ptr, i32 }
          cleanup
  tail call void @_ZN7Imf_3_27OStreamD2Ev(ptr noundef nonnull align 8 dereferenceable(40) %this) #11
  resume { ptr, i32 } %0
}